target datalayout = "e-m:e-p270:32:32-p271:32:32-p272:64:64-i64:64-i128:128-f80:128-n8:16:32:64-S128"
target triple = "x86_64-pc-linux-gnu"

; Function Attrs: nounwind uwtable
define i32 @ff_id3v2_match(ptr noundef %0, ptr noundef %1) #0 {
  %3 = alloca ptr, align 8
  %4 = alloca ptr, align 8
  store ptr %0, ptr %3, align 8, !tbaa !4
  store ptr %1, ptr %4, align 8, !tbaa !4
  %5 = load ptr, ptr %3, align 8, !tbaa !4
  %6 = getelementptr inbounds i8, ptr %5, i64 0
  %7 = load i8, ptr %6, align 1, !tbaa !9
  %8 = zext i8 %7 to i32
  %9 = load ptr, ptr %4, align 8, !tbaa !4
  %10 = getelementptr inbounds i8, ptr %9, i64 0
  %11 = load i8, ptr %10, align 1, !tbaa !9
  %12 = sext i8 %11 to i32
  %13 = icmp eq i32 %8, %12
  br i1 %13, label %14, label %74

14:                                               ; preds = %2
  %15 = load ptr, ptr %3, align 8, !tbaa !4
  %16 = getelementptr inbounds i8, ptr %15, i64 1
  %17 = load i8, ptr %16, align 1, !tbaa !9
  %18 = zext i8 %17 to i32
  %19 = load ptr, ptr %4, align 8, !tbaa !4
  %20 = getelementptr inbounds i8, ptr %19, i64 1
  %21 = load i8, ptr %20, align 1, !tbaa !9
  %22 = sext i8 %21 to i32
  %23 = icmp eq i32 %18, %22
  br i1 %23, label %24, label %74

24:                                               ; preds = %14
  %25 = load ptr, ptr %3, align 8, !tbaa !4
  %26 = getelementptr inbounds i8, ptr %25, i64 2
  %27 = load i8, ptr %26, align 1, !tbaa !9
  %28 = zext i8 %27 to i32
  %29 = load ptr, ptr %4, align 8, !tbaa !4
  %30 = getelementptr inbounds i8, ptr %29, i64 2
  %31 = load i8, ptr %30, align 1, !tbaa !9
  %32 = sext i8 %31 to i32
  %33 = icmp eq i32 %28, %32
  br i1 %33, label %34, label %74

34:                                               ; preds = %24
  %35 = load ptr, ptr %3, align 8, !tbaa !4
  %36 = getelementptr inbounds i8, ptr %35, i64 3
  %37 = load i8, ptr %36, align 1, !tbaa !9
  %38 = zext i8 %37 to i32
  %39 = icmp ne i32 %38, 255
  br i1 %39, label %40, label %74

40:                                               ; preds = %34
  %41 = load ptr, ptr %3, align 8, !tbaa !4
  %42 = getelementptr inbounds i8, ptr %41, i64 4
  %43 = load i8, ptr %42, align 1, !tbaa !9
  %44 = zext i8 %43 to i32
  %45 = icmp ne i32 %44, 255
  br i1 %45, label %46, label %74

46:                                               ; preds = %40
  %47 = load ptr, ptr %3, align 8, !tbaa !4
  %48 = getelementptr inbounds i8, ptr %47, i64 6
  %49 = load i8, ptr %48, align 1, !tbaa !9
  %50 = zext i8 %49 to i32
  %51 = and i32 %50, 128
  %52 = icmp eq i32 %51, 0
  br i1 %52, label %53, label %74

53:                                               ; preds = %46
  %54 = load ptr, ptr %3, align 8, !tbaa !4
  %55 = getelementptr inbounds i8, ptr %54, i64 7
  %56 = load i8, ptr %55, align 1, !tbaa !9
  %57 = zext i8 %56 to i32
  %58 = and i32 %57, 128
  %59 = icmp eq i32 %58, 0
  br i1 %59, label %60, label %74

60:                                               ; preds = %53
  %61 = load ptr, ptr %3, align 8, !tbaa !4
  %62 = getelementptr inbounds i8, ptr %61, i64 8
  %63 = load i8, ptr %62, align 1, !tbaa !9
  %64 = zext i8 %63 to i32
  %65 = and i32 %64, 128
  %66 = icmp eq i32 %65, 0
  br i1 %66, label %67, label %74

67:                                               ; preds = %60
  %68 = load ptr, ptr %3, align 8, !tbaa !4
  %69 = getelementptr inbounds i8, ptr %68, i64 9
  %70 = load i8, ptr %69, align 1, !tbaa !9
  %71 = zext i8 %70 to i32
  %72 = and i32 %71, 128
  %73 = icmp eq i32 %72, 0
  br label %74

74:                                               ; preds = %67, %60, %53, %46, %40, %34, %24, %14, %2
  %75 = phi i1 [ false, %60 ], [ false, %53 ], [ false, %46 ], [ false, %40 ], [ false, %34 ], [ false, %24 ], [ false, %14 ], [ false, %2 ], [ %73, %67 ]
  %76 = zext i1 %75 to i32
  ret i32 %76
}