; Function Attrs: mustprogress nofree norecurse nosync nounwind willreturn memory(argmem: read) uwtable
define range(i32 0, 2) i32 @ff_id3v2_match(ptr noundef readonly captures(none) %0, ptr noundef readonly captures(none) %1) local_unnamed_addr #0 {
  %3 = load i8, ptr %0, align 1, !tbaa !4
  %4 = zext i8 %3 to i32
  %5 = load i8, ptr %1, align 1, !tbaa !4
  %6 = sext i8 %5 to i32
  %7 = icmp eq i32 %4, %6
  br i1 %7, label %8, label %47

8:                                                ; preds = %2
  %9 = getelementptr inbounds nuw i8, ptr %0, i64 1
  %10 = load i8, ptr %9, align 1, !tbaa !4
  %11 = zext i8 %10 to i32
  %12 = getelementptr inbounds nuw i8, ptr %1, i64 1
  %13 = load i8, ptr %12, align 1, !tbaa !4
  %14 = sext i8 %13 to i32
  %15 = icmp eq i32 %11, %14
  br i1 %15, label %16, label %47

16:                                               ; preds = %8
  %17 = getelementptr inbounds nuw i8, ptr %0, i64 2
  %18 = load i8, ptr %17, align 1, !tbaa !4
  %19 = zext i8 %18 to i32
  %20 = getelementptr inbounds nuw i8, ptr %1, i64 2
  %21 = load i8, ptr %20, align 1, !tbaa !4
  %22 = sext i8 %21 to i32
  %23 = icmp eq i32 %19, %22
  br i1 %23, label %24, label %47

24:                                               ; preds = %16
  %25 = getelementptr inbounds nuw i8, ptr %0, i64 3
  %26 = load i8, ptr %25, align 1, !tbaa !4
  %.not = icmp eq i8 %26, -1
  br i1 %.not, label %47, label %27

27:                                               ; preds = %24
  %28 = getelementptr inbounds nuw i8, ptr %0, i64 4
  %29 = load i8, ptr %28, align 1, !tbaa !4
  %.not12 = icmp eq i8 %29, -1
  br i1 %.not12, label %47, label %30

30:                                               ; preds = %27
  %31 = getelementptr inbounds nuw i8, ptr %0, i64 6
  %32 = load i8, ptr %31, align 1, !tbaa !4
  %33 = icmp sgt i8 %32, -1
  br i1 %33, label %34, label %47

34:                                               ; preds = %30
  %35 = getelementptr inbounds nuw i8, ptr %0, i64 7
  %36 = load i8, ptr %35, align 1, !tbaa !4
  %37 = icmp sgt i8 %36, -1
  br i1 %37, label %38, label %47

38:                                               ; preds = %34
  %39 = getelementptr inbounds nuw i8, ptr %0, i64 8
  %40 = load i8, ptr %39, align 1, !tbaa !4
  %41 = icmp sgt i8 %40, -1
  br i1 %41, label %42, label %47

42:                                               ; preds = %38
  %43 = getelementptr inbounds nuw i8, ptr %0, i64 9
  %44 = load i8, ptr %43, align 1, !tbaa !4
  %45 = icmp sgt i8 %44, -1
  %46 = zext i1 %45 to i32
  br label %47

47:                                               ; preds = %42, %38, %34, %30, %27, %24, %16, %8, %2
  %48 = phi i32 [ 0, %38 ], [ 0, %34 ], [ 0, %30 ], [ 0, %27 ], [ 0, %24 ], [ 0, %16 ], [ 0, %8 ], [ 0, %2 ], [ %46, %42 ]
  ret i32 %48
}